; Function Attrs: cold nounwind optsize uwtable
define internal range(i32 -12, 1) i32 @decode_init(ptr noundef %0) #0 {
  %2 = getelementptr inbounds nuw i8, ptr %0, i64 32
  %3 = load ptr, ptr %2, align 8, !tbaa !4
  tail call void @ff_bswapdsp_init(ptr noundef %3) #6
  %4 = getelementptr inbounds nuw i8, ptr %3, i64 80
  tail call void @ff_idctdsp_init(ptr noundef nonnull %4, ptr noundef %0) #6
  %5 = tail call ptr @av_frame_alloc() #6
  %6 = getelementptr inbounds nuw i8, ptr %3, i64 48
  store ptr %5, ptr %6, align 16, !tbaa !27
  %.not = icmp eq ptr %5, null
  br i1 %.not, label %9, label %7

7:                                                ; preds = %1
  %8 = tail call i32 @pthread_once(ptr noundef nonnull @decode_init.init_static_once, ptr noundef nonnull @imm4_init_static_data) #6
  br label %9

9:                                                ; preds = %1, %7
  %.0 = phi i32 [ 0, %7 ], [ -12, %1 ]
  ret i32 %.0
}